; Function Attrs: null_pointer_is_valid sspstrong uwtable
define noundef zeroext i1 @uat_fld_chk_str_isalnum(ptr noundef readnone captures(none) %0, ptr noundef readonly captures(none) %1, i32 noundef %2, ptr noundef readnone captures(none) %3, ptr noundef readnone captures(none) %4, ptr noundef writeonly captures(none) %5) local_unnamed_addr #0 {
  %7 = icmp eq i32 %2, 0
  br i1 %7, label %.loopexit, label %.lr.ph

.lr.ph:                                           ; preds = %6
  %8 = load ptr, ptr @g_ascii_table, align 8
  %wide.trip.count = zext i32 %2 to i64
  br label %9

9:                                                ; preds = %.lr.ph, %.critedge
  %indvars.iv = phi i64 [ 0, %.lr.ph ], [ %indvars.iv.next, %.critedge ]
  %10 = getelementptr i8, ptr %1, i64 %indvars.iv
  %11 = load i8, ptr %10, align 1
  %12 = zext i8 %11 to i64
  %13 = getelementptr i16, ptr %8, i64 %12
  %14 = load i16, ptr %13, align 2
  %15 = and i16 %14, 1
  %.not.not = icmp eq i16 %15, 0
  br i1 %.not.not, label %16, label %.critedge

16:                                               ; preds = %9
  %17 = trunc nuw i64 %indvars.iv to i32
  %18 = zext i8 %11 to i32
  %19 = tail call noalias ptr (ptr, ptr, ...) @wmem_strdup_printf(ptr noundef null, ptr noundef nonnull @.str.33, i32 noundef %17, i32 noundef %18)
  br label %.loopexit

.critedge:                                        ; preds = %9
  %indvars.iv.next = add nuw nsw i64 %indvars.iv, 1
  %exitcond.not = icmp eq i64 %indvars.iv.next, %wide.trip.count
  br i1 %exitcond.not, label %.loopexit, label %9, !llvm.loop !39

.loopexit:                                        ; preds = %.critedge, %6, %16
  %20 = phi i1 [ false, %16 ], [ true, %6 ], [ true, %.critedge ]
  %storemerge = phi ptr [ %19, %16 ], [ null, %6 ], [ null, %.critedge ]
  store ptr %storemerge, ptr %5, align 8
  ret i1 %20
}